CCS PCH C Compiler, Version 5.076, 56587               10-may.-24 11:18

               Filename:   D:\Temporizadores\Interrupción por desbordamiento de Timer 1.lst

               ROM used:   262 bytes (1%)
                           Largest free fragment is 32502
               RAM used:   25 (1%) at main() level
                           25 (1%) worst case
               Stack used: 1 locations (0 in main + 1 for interrupts)
               Stack size: 31

*
0000:  GOTO   00CE
*
0008:  MOVWF  04
000A:  MOVFF  FD8,05
000E:  MOVFF  FE0,06
0012:  MOVLB  0
0014:  MOVFF  FE9,0C
0018:  MOVFF  FEA,07
001C:  MOVFF  FE1,08
0020:  MOVFF  FE2,09
0024:  MOVFF  FD9,0A
0028:  MOVFF  FDA,0B
002C:  MOVFF  FF3,12
0030:  MOVFF  FF4,13
0034:  MOVFF  FFA,14
0038:  MOVFF  FF5,15
003C:  MOVFF  FF6,16
0040:  MOVFF  FF7,17
0044:  MOVFF  00,0E
0048:  MOVFF  01,0F
004C:  MOVFF  02,10
0050:  MOVFF  03,11
0054:  BTFSS  F9D.0
0056:  GOTO   0060
005A:  BTFSC  F9E.0
005C:  GOTO   00BA
0060:  BTFSS  F9D.1
0062:  GOTO   006C
0066:  BTFSC  F9E.1
0068:  GOTO   00C4
006C:  MOVFF  0E,00
0070:  MOVFF  0F,01
0074:  MOVFF  10,02
0078:  MOVFF  11,03
007C:  MOVFF  0C,FE9
0080:  MOVFF  07,FEA
0084:  BSF    07.7
0086:  MOVFF  08,FE1
008A:  MOVFF  09,FE2
008E:  MOVFF  0A,FD9
0092:  MOVFF  0B,FDA
0096:  MOVFF  12,FF3
009A:  MOVFF  13,FF4
009E:  MOVFF  14,FFA
00A2:  MOVFF  15,FF5
00A6:  MOVFF  16,FF6
00AA:  MOVFF  17,FF7
00AE:  MOVF   04,W
00B0:  MOVFF  06,FE0
00B4:  MOVFF  05,FD8
00B8:  RETFIE 0
.................... #include <18F2550.h> 
.................... //////////// Standard Header file for the PIC18F2550 device //////////////// 
.................... /////////////////////////////////////////////////////////////////////////// 
.................... ////        (C) Copyright 1996, 2014 Custom Computer Services          //// 
.................... //// This source code may only be used by licensed users of the CCS C  //// 
.................... //// compiler.  This source code may only be distributed to other      //// 
.................... //// licensed users of the CCS C compiler.  No other use, reproduction //// 
.................... //// or distribution is permitted without written permission.          //// 
.................... //// Derivative programs created using this software in object code    //// 
.................... //// form are not restricted in any way.                               //// 
.................... /////////////////////////////////////////////////////////////////////////// 
.................... #device PIC18F2550 
....................  
.................... #list 
....................  
.................... #fuses XT, NOWDT, NOPUT, NOLVP, NOPROTECT, BROWNOUT 
.................... #use delay(clock=4M) 
.................... #use standard_io(B) 
....................  
.................... #INT_TIMER1 
.................... void timer1_interrupcion() { 
....................    output_toggle(PIN_B0); // Alternar estado del primer LED cada 0.5 segundos 
00BA:  BCF    F93.0
00BC:  BTG    F8A.0
.................... } 
....................  
00BE:  BCF    F9E.0
00C0:  GOTO   006C
.................... #INT_TIMER2 
.................... void timer2_interrupcion() { 
....................    output_toggle(PIN_B1); // Alternar estado del segundo LED cada 1 segundo 
00C4:  BCF    F93.1
00C6:  BTG    F8A.1
00C8:  BCF    F9E.1
00CA:  GOTO   006C
.................... } 
....................  
.................... void main() { 
00CE:  CLRF   FF8
00D0:  BCF    FD0.7
00D2:  BSF    07.7
00D4:  MOVF   FC1,W
00D6:  ANDLW  C0
00D8:  IORLW  0F
00DA:  MOVWF  FC1
00DC:  MOVLW  07
00DE:  MOVWF  FB4
....................   set_tris_b(0x00); // Configurar B0 y B1 como salidas 
00E0:  MOVLW  00
00E2:  MOVWF  F93
....................  
....................   // Configurar Timer1 para 0.5 segundos 
....................   setup_timer_1(T1_INTERNAL | T1_DIV_BY_8); 
00E4:  MOVLW  B5
00E6:  MOVWF  FCD
....................   set_timer1(1000000); // Carga para contar 0.5 segundos 
00E8:  MOVLW  42
00EA:  MOVWF  FCF
00EC:  MOVLW  40
00EE:  MOVWF  FCE
....................  
....................   // Configurar Timer2 para 1 segundo 
....................   setup_timer_2(T2_DIV_BY_16, 250, 16); // Periodo 250, Postscaler 16 
00F0:  MOVLW  78
00F2:  IORLW  06
00F4:  MOVWF  FCA
00F6:  MOVLW  FA
00F8:  MOVWF  FCB
....................  
....................   enable_interrupts(INT_TIMER1); // Habilitar interrupción de Timer1 
00FA:  BSF    F9D.0
....................   enable_interrupts(INT_TIMER2); // Habilitar interrupción de Timer2 
00FC:  BSF    F9D.1
....................   enable_interrupts(GLOBAL);    // Habilitar todas las interrupciones globales 
00FE:  MOVLW  C0
0100:  IORWF  FF2,F
....................  
....................   output_high(PIN_B0); // Encender PIN RB0 inicialmente 
0102:  BCF    F93.0
0104:  BSF    F8A.0
....................  
....................   while(true) { 
0106:  BRA    0106
....................     // El bucle principal está vacío; el parpadeo de los LEDs se maneja totalmente desde las interrupciones 
....................   } 
.................... } 
....................  
0108:  SLEEP 

Configuration Fuses:
   Word  1: C03F   PLL12 CPUDIV4 USBDIV XT FCMEN IESO
   Word  2: 1E3F   NOPUT BROWNOUT BORV21 VREGEN NOWDT WDT32768
   Word  3: 8700   CCP2C1 PBADEN LPT1OSC MCLR
   Word  4: 0081   STVREN NOLVP NOXINST NODEBUG
   Word  5: C00F   NOPROTECT NOCPB NOCPD
   Word  6: E00F   NOWRT NOWRTC NOWRTB NOWRTD
   Word  7: 400F   NOEBTR NOEBTRB
